target datalayout = "e-m:e-p270:32:32-p271:32:32-p272:64:64-i64:64-i128:128-f80:128-n8:16:32:64-S128"
target triple = "x86_64-pc-linux-gnu"

%struct.rb_data_type_struct = type { ptr, %struct.anon, ptr, ptr, i64 }
%struct.anon = type { ptr, ptr, ptr, ptr, [1 x ptr] }

@ossl_ssl_type = constant %struct.rb_data_type_struct { ptr @.str, %struct.anon { ptr @ossl_ssl_mark, ptr @ossl_ssl_free, ptr null, ptr null, [1 x ptr] zeroinitializer }, ptr null, ptr null, i64 33 }, align 8
@rb_eRuntimeError = external global i64, align 8
@.str.267 = private unnamed_addr constant [23 x i8] c"SSL is not initialized\00", align 1

; Function Attrs: nounwind sspstrong uwtable
define internal i64 @ossl_ssl_alpn_protocol(i64 noundef %0) #0 {
  %2 = alloca i64, align 8
  %3 = alloca i64, align 8
  %4 = alloca ptr, align 8
  %5 = alloca ptr, align 8
  %6 = alloca i32, align 4
  %7 = alloca i32, align 4
  store i64 %0, ptr %3, align 8, !tbaa !14
  call void @llvm.lifetime.start.p0(i64 8, ptr %4) #20
  call void @llvm.lifetime.start.p0(i64 8, ptr %5) #20
  call void @llvm.lifetime.start.p0(i64 4, ptr %6) #20
  br label %8

8:                                                ; preds = %1
  %9 = load i64, ptr %3, align 8, !tbaa !14
  %10 = call ptr @rb_check_typeddata(i64 noundef %9, ptr noundef @ossl_ssl_type)
  store ptr %10, ptr %4, align 8, !tbaa !10
  %11 = load ptr, ptr %4, align 8, !tbaa !10
  %12 = icmp ne ptr %11, null
  br i1 %12, label %15, label %13

13:                                               ; preds = %8
  %14 = load i64, ptr @rb_eRuntimeError, align 8, !tbaa !14
  call void (i64, ptr, ...) @ossl_raise(i64 noundef %14, ptr noundef @.str.267) #22
  unreachable

15:                                               ; preds = %8
  br label %16

16:                                               ; preds = %15
  br label %17

17:                                               ; preds = %16
  %18 = load ptr, ptr %4, align 8, !tbaa !10
  call void @SSL_get0_alpn_selected(ptr noundef %18, ptr noundef %5, ptr noundef %6)
  %19 = load i32, ptr %6, align 4, !tbaa !12
  %20 = icmp ne i32 %19, 0
  br i1 %20, label %22, label %21

21:                                               ; preds = %17
  store i64 4, ptr %2, align 8
  store i32 1, ptr %7, align 4
  br label %33

22:                                               ; preds = %17
  br i1 false, label %23, label %26

23:                                               ; preds = %22
  %24 = load i32, ptr %6, align 4, !tbaa !12
  %25 = call i1 @llvm.is.constant.i32(i32 %24)
  br label %26

26:                                               ; preds = %23, %22
  %27 = phi i1 [ false, %22 ], [ %25, %23 ]
  %28 = select i1 %27, ptr @rb_str_new_static, ptr @rb_str_new
  %29 = load ptr, ptr %5, align 8, !tbaa !16
  %30 = load i32, ptr %6, align 4, !tbaa !12
  %31 = zext i32 %30 to i64
  %32 = call i64 %28(ptr noundef %29, i64 noundef %31)
  store i64 %32, ptr %2, align 8
  store i32 1, ptr %7, align 4
  br label %33

33:                                               ; preds = %26, %21
  call void @llvm.lifetime.end.p0(i64 4, ptr %6) #20
  call void @llvm.lifetime.end.p0(i64 8, ptr %5) #20
  call void @llvm.lifetime.end.p0(i64 8, ptr %4) #20
  %34 = load i64, ptr %2, align 8
  ret i64 %34
}